target datalayout = "e-m:e-p270:32:32-p271:32:32-p272:64:64-i64:64-i128:128-f80:128-n8:16:32:64-S128"
target triple = "x86_64-pc-linux-gnu"

%struct.SurfaceDataRasInfo = type { %struct.SurfaceDataBounds, ptr, i32, i32, i32, i32, ptr, ptr, ptr, ptr, ptr, ptr, i32, %union.anon.0 }
%struct.SurfaceDataBounds = type { i32, i32, i32, i32 }
%union.anon.0 = type { ptr, [56 x i8] }

; Function Attrs: nounwind uwtable
define hidden void @ByteIndexedBmToIndex12GrayXparOver(ptr noundef %0, ptr noundef %1, i32 noundef %2, i32 noundef %3, ptr noundef %4, ptr noundef %5, ptr noundef %6, ptr noundef %7) #0 {
  %9 = alloca ptr, align 8
  %10 = alloca ptr, align 8
  %11 = alloca i32, align 4
  %12 = alloca i32, align 4
  %13 = alloca ptr, align 8
  %14 = alloca ptr, align 8
  %15 = alloca ptr, align 8
  %16 = alloca ptr, align 8
  %17 = alloca ptr, align 8
  %18 = alloca [256 x i32], align 16
  %19 = alloca ptr, align 8
  %20 = alloca i32, align 4
  %21 = alloca ptr, align 8
  %22 = alloca ptr, align 8
  %23 = alloca i32, align 4
  %24 = alloca i32, align 4
  %25 = alloca i32, align 4
  %26 = alloca i32, align 4
  %27 = alloca i32, align 4
  %28 = alloca i32, align 4
  %29 = alloca ptr, align 8
  %30 = alloca ptr, align 8
  %31 = alloca i32, align 4
  %32 = alloca i32, align 4
  %33 = alloca i32, align 4
  %34 = alloca i32, align 4
  store ptr %0, ptr %9, align 8
  store ptr %1, ptr %10, align 8
  store i32 %2, ptr %11, align 4
  store i32 %3, ptr %12, align 4
  store ptr %4, ptr %13, align 8
  store ptr %5, ptr %14, align 8
  store ptr %6, ptr %15, align 8
  store ptr %7, ptr %16, align 8
  br label %35

35:                                               ; preds = %8
  %36 = load ptr, ptr %13, align 8
  %37 = getelementptr inbounds %struct.SurfaceDataRasInfo, ptr %36, i32 0, i32 6
  %38 = load ptr, ptr %37, align 8
  store ptr %38, ptr %19, align 8
  %39 = load ptr, ptr %13, align 8
  %40 = getelementptr inbounds %struct.SurfaceDataRasInfo, ptr %39, i32 0, i32 5
  %41 = load i32, ptr %40, align 4
  store i32 %41, ptr %20, align 4
  %42 = load ptr, ptr %14, align 8
  %43 = getelementptr inbounds %struct.SurfaceDataRasInfo, ptr %42, i32 0, i32 11
  %44 = load ptr, ptr %43, align 8
  store ptr %44, ptr %21, align 8
  %45 = load i32, ptr %20, align 4
  %46 = icmp uge i32 %45, 256
  br i1 %46, label %47, label %48

47:                                               ; preds = %35
  store i32 256, ptr %20, align 4
  br label %61

48:                                               ; preds = %35
  %49 = load i32, ptr %20, align 4
  %50 = zext i32 %49 to i64
  %51 = getelementptr inbounds [256 x i32], ptr %18, i64 0, i64 %50
  store ptr %51, ptr %22, align 8
  br label %52

52:                                               ; preds = %55, %48
  %53 = load ptr, ptr %22, align 8
  %54 = getelementptr inbounds i32, ptr %53, i64 0
  store i32 -1, ptr %54, align 4
  br label %55

55:                                               ; preds = %52
  %56 = load ptr, ptr %22, align 8
  %57 = getelementptr inbounds i32, ptr %56, i32 1
  store ptr %57, ptr %22, align 8
  %58 = getelementptr inbounds [256 x i32], ptr %18, i64 0, i64 256
  %59 = icmp ult ptr %57, %58
  br i1 %59, label %52, label %60, !llvm.loop !42

60:                                               ; preds = %55
  br label %61

61:                                               ; preds = %60, %47
  br label %62

62:                                               ; preds = %61
  store i32 0, ptr %23, align 4
  br label %63

63:                                               ; preds = %115, %62
  br label %64

64:                                               ; preds = %63
  %65 = load ptr, ptr %19, align 8
  %66 = load i32, ptr %23, align 4
  %67 = zext i32 %66 to i64
  %68 = getelementptr inbounds i32, ptr %65, i64 %67
  %69 = load i32, ptr %68, align 4
  store i32 %69, ptr %24, align 4
  %70 = load i32, ptr %24, align 4
  %71 = icmp slt i32 %70, 0
  br i1 %71, label %72, label %109

72:                                               ; preds = %64
  br label %73

73:                                               ; preds = %72
  br label %74

74:                                               ; preds = %73
  %75 = load i32, ptr %24, align 4
  %76 = and i32 %75, 255
  store i32 %76, ptr %27, align 4
  %77 = load i32, ptr %24, align 4
  %78 = ashr i32 %77, 8
  %79 = and i32 %78, 255
  store i32 %79, ptr %26, align 4
  %80 = load i32, ptr %24, align 4
  %81 = ashr i32 %80, 16
  %82 = and i32 %81, 255
  store i32 %82, ptr %25, align 4
  br label %83

83:                                               ; preds = %74
  br label %84

84:                                               ; preds = %83
  %85 = load i32, ptr %25, align 4
  %86 = mul nsw i32 77, %85
  %87 = load i32, ptr %26, align 4
  %88 = mul nsw i32 150, %87
  %89 = add nsw i32 %86, %88
  %90 = load i32, ptr %27, align 4
  %91 = mul nsw i32 29, %90
  %92 = add nsw i32 %89, %91
  %93 = add nsw i32 %92, 128
  %94 = sdiv i32 %93, 256
  %95 = trunc i32 %94 to i8
  %96 = zext i8 %95 to i32
  store i32 %96, ptr %28, align 4
  %97 = load ptr, ptr %21, align 8
  %98 = load i32, ptr %28, align 4
  %99 = sext i32 %98 to i64
  %100 = getelementptr inbounds i32, ptr %97, i64 %99
  %101 = load i32, ptr %100, align 4
  %102 = trunc i32 %101 to i16
  %103 = zext i16 %102 to i32
  %104 = load i32, ptr %23, align 4
  %105 = zext i32 %104 to i64
  %106 = getelementptr inbounds [256 x i32], ptr %18, i64 0, i64 %105
  store i32 %103, ptr %106, align 4
  br label %107

107:                                              ; preds = %84
  br label %108

108:                                              ; preds = %107
  br label %113

109:                                              ; preds = %64
  %110 = load i32, ptr %23, align 4
  %111 = zext i32 %110 to i64
  %112 = getelementptr inbounds [256 x i32], ptr %18, i64 0, i64 %111
  store i32 -1, ptr %112, align 4
  br label %113

113:                                              ; preds = %109, %108
  br label %114

114:                                              ; preds = %113
  br label %115

115:                                              ; preds = %114
  %116 = load i32, ptr %23, align 4
  %117 = add i32 %116, 1
  store i32 %117, ptr %23, align 4
  %118 = load i32, ptr %20, align 4
  %119 = icmp ult i32 %117, %118
  br i1 %119, label %63, label %120, !llvm.loop !43

120:                                              ; preds = %115
  br label %121

121:                                              ; preds = %120
  br label %122

122:                                              ; preds = %121
  br label %123

123:                                              ; preds = %122
  %124 = load ptr, ptr %9, align 8
  store ptr %124, ptr %29, align 8
  %125 = load ptr, ptr %10, align 8
  store ptr %125, ptr %30, align 8
  %126 = load ptr, ptr %13, align 8
  %127 = getelementptr inbounds %struct.SurfaceDataRasInfo, ptr %126, i32 0, i32 4
  %128 = load i32, ptr %127, align 8
  store i32 %128, ptr %31, align 4
  %129 = load ptr, ptr %14, align 8
  %130 = getelementptr inbounds %struct.SurfaceDataRasInfo, ptr %129, i32 0, i32 4
  %131 = load i32, ptr %130, align 8
  store i32 %131, ptr %32, align 4
  %132 = load ptr, ptr %14, align 8
  %133 = getelementptr inbounds %struct.SurfaceDataRasInfo, ptr %132, i32 0, i32 11
  %134 = load ptr, ptr %133, align 8
  store ptr %134, ptr %17, align 8
  %135 = load i32, ptr %11, align 4
  %136 = mul i32 %135, 1
  %137 = load i32, ptr %31, align 4
  %138 = sub i32 %137, %136
  store i32 %138, ptr %31, align 4
  %139 = load i32, ptr %11, align 4
  %140 = mul i32 %139, 2
  %141 = load i32, ptr %32, align 4
  %142 = sub i32 %141, %140
  store i32 %142, ptr %32, align 4
  br label %143

143:                                              ; preds = %187, %123
  %144 = load i32, ptr %11, align 4
  store i32 %144, ptr %33, align 4
  br label %145

145:                                              ; preds = %170, %143
  br label %146

146:                                              ; preds = %145
  %147 = load ptr, ptr %29, align 8
  %148 = getelementptr inbounds i8, ptr %147, i64 0
  %149 = load i8, ptr %148, align 1
  %150 = zext i8 %149 to i64
  %151 = getelementptr inbounds [256 x i32], ptr %18, i64 0, i64 %150
  %152 = load i32, ptr %151, align 4
  store i32 %152, ptr %34, align 4
  %153 = load i32, ptr %34, align 4
  %154 = icmp slt i32 %153, 0
  br i1 %154, label %160, label %155

155:                                              ; preds = %146
  %156 = load i32, ptr %34, align 4
  %157 = trunc i32 %156 to i16
  %158 = load ptr, ptr %30, align 8
  %159 = getelementptr inbounds i16, ptr %158, i64 0
  store i16 %157, ptr %159, align 2
  br label %160

160:                                              ; preds = %155, %146
  br label %161

161:                                              ; preds = %160
  %162 = load ptr, ptr %29, align 8
  %163 = ptrtoint ptr %162 to i64
  %164 = add nsw i64 %163, 1
  %165 = inttoptr i64 %164 to ptr
  store ptr %165, ptr %29, align 8
  %166 = load ptr, ptr %30, align 8
  %167 = ptrtoint ptr %166 to i64
  %168 = add nsw i64 %167, 2
  %169 = inttoptr i64 %168 to ptr
  store ptr %169, ptr %30, align 8
  br label %170

170:                                              ; preds = %161
  %171 = load i32, ptr %33, align 4
  %172 = add i32 %171, -1
  store i32 %172, ptr %33, align 4
  %173 = icmp ugt i32 %172, 0
  br i1 %173, label %145, label %174, !llvm.loop !44

174:                                              ; preds = %170
  %175 = load ptr, ptr %29, align 8
  %176 = ptrtoint ptr %175 to i64
  %177 = load i32, ptr %31, align 4
  %178 = sext i32 %177 to i64
  %179 = add nsw i64 %176, %178
  %180 = inttoptr i64 %179 to ptr
  store ptr %180, ptr %29, align 8
  %181 = load ptr, ptr %30, align 8
  %182 = ptrtoint ptr %181 to i64
  %183 = load i32, ptr %32, align 4
  %184 = sext i32 %183 to i64
  %185 = add nsw i64 %182, %184
  %186 = inttoptr i64 %185 to ptr
  store ptr %186, ptr %30, align 8
  br label %187

187:                                              ; preds = %174
  %188 = load i32, ptr %12, align 4
  %189 = add i32 %188, -1
  store i32 %189, ptr %12, align 4
  %190 = icmp ugt i32 %189, 0
  br i1 %190, label %143, label %191, !llvm.loop !45

191:                                              ; preds = %187
  br label %192

192:                                              ; preds = %191
  ret void
}