; Function Attrs: nofree norecurse nosync nounwind memory(readwrite, inaccessiblemem: none) uwtable
define hidden void @ByteIndexedBmToIndex12GrayXparOver(ptr noundef %0, ptr noundef %1, i32 noundef %2, i32 noundef %3, ptr nocapture noundef readonly %4, ptr nocapture noundef readonly %5, ptr nocapture readnone %6, ptr nocapture readnone %7) #0 {
  %9 = alloca [256 x i32], align 16
  %10 = getelementptr inbounds i8, ptr %4, i64 40
  %11 = load ptr, ptr %10, align 8
  %12 = getelementptr inbounds i8, ptr %4, i64 36
  %13 = load i32, ptr %12, align 4
  %14 = getelementptr inbounds i8, ptr %5, i64 80
  %15 = load ptr, ptr %14, align 8
  %16 = icmp ugt i32 %13, 255
  br i1 %16, label %.loopexit, label %.loopexit.loopexit

.loopexit.loopexit:                               ; preds = %8
  %17 = shl nuw nsw i32 %13, 2
  %.idx = zext nneg i32 %17 to i64
  %scevgep = getelementptr i8, ptr %9, i64 %.idx
  %18 = sub nuw nsw i64 1024, %.idx
  call void @llvm.memset.p0.i64(ptr align 4 %scevgep, i8 -1, i64 %18, i1 false)
  br label %.loopexit

.loopexit:                                        ; preds = %.loopexit.loopexit, %8
  %.047 = phi i32 [ 256, %8 ], [ %13, %.loopexit.loopexit ]
  %umax = tail call i32 @llvm.umax.i32(i32 %.047, i32 1)
  %wide.trip.count = zext nneg i32 %umax to i64
  br label %19

19:                                               ; preds = %40, %.loopexit
  %indvars.iv = phi i64 [ %indvars.iv.next, %40 ], [ 0, %.loopexit ]
  %20 = getelementptr inbounds i32, ptr %11, i64 %indvars.iv
  %21 = load i32, ptr %20, align 4
  %22 = icmp slt i32 %21, 0
  br i1 %22, label %23, label %40

23:                                               ; preds = %19
  %24 = and i32 %21, 255
  %25 = lshr i32 %21, 8
  %26 = and i32 %25, 255
  %27 = lshr i32 %21, 16
  %28 = and i32 %27, 255
  %29 = mul nuw nsw i32 %28, 77
  %30 = mul nuw nsw i32 %26, 150
  %31 = mul nuw nsw i32 %24, 29
  %32 = add nuw nsw i32 %31, 128
  %33 = add nuw nsw i32 %32, %30
  %34 = add nuw nsw i32 %33, %29
  %35 = lshr i32 %34, 8
  %36 = zext nneg i32 %35 to i64
  %37 = getelementptr inbounds i32, ptr %15, i64 %36
  %38 = load i32, ptr %37, align 4
  %39 = and i32 %38, 65535
  br label %40

40:                                               ; preds = %19, %23
  %.sink = phi i32 [ %39, %23 ], [ -1, %19 ]
  %41 = getelementptr inbounds [256 x i32], ptr %9, i64 0, i64 %indvars.iv
  store i32 %.sink, ptr %41, align 4
  %indvars.iv.next = add nuw nsw i64 %indvars.iv, 1
  %exitcond.not = icmp eq i64 %indvars.iv.next, %wide.trip.count
  br i1 %exitcond.not, label %42, label %19, !llvm.loop !42

42:                                               ; preds = %40
  %43 = getelementptr inbounds i8, ptr %4, i64 32
  %44 = load i32, ptr %43, align 8
  %45 = getelementptr inbounds i8, ptr %5, i64 32
  %46 = load i32, ptr %45, align 8
  %47 = sub i32 %44, %2
  %48 = shl i32 %2, 1
  %49 = sub i32 %46, %48
  %50 = sext i32 %47 to i64
  %51 = sext i32 %49 to i64
  br label %52

52:                                               ; preds = %69, %42
  %.045 = phi ptr [ %0, %42 ], [ %71, %69 ]
  %.044 = phi ptr [ %1, %42 ], [ %73, %69 ]
  %.0 = phi i32 [ %3, %42 ], [ %74, %69 ]
  br label %53

53:                                               ; preds = %61, %52
  %.146 = phi ptr [ %.045, %52 ], [ %64, %61 ]
  %.1 = phi ptr [ %.044, %52 ], [ %67, %61 ]
  %.043 = phi i32 [ %2, %52 ], [ %68, %61 ]
  %54 = load i8, ptr %.146, align 1
  %55 = zext i8 %54 to i64
  %56 = getelementptr inbounds [256 x i32], ptr %9, i64 0, i64 %55
  %57 = load i32, ptr %56, align 4
  %58 = icmp slt i32 %57, 0
  br i1 %58, label %61, label %59

59:                                               ; preds = %53
  %60 = trunc i32 %57 to i16
  store i16 %60, ptr %.1, align 2
  br label %61

61:                                               ; preds = %53, %59
  %62 = ptrtoint ptr %.146 to i64
  %63 = add nsw i64 %62, 1
  %64 = inttoptr i64 %63 to ptr
  %65 = ptrtoint ptr %.1 to i64
  %66 = add nsw i64 %65, 2
  %67 = inttoptr i64 %66 to ptr
  %68 = add i32 %.043, -1
  %.not = icmp eq i32 %68, 0
  br i1 %.not, label %69, label %53, !llvm.loop !43

69:                                               ; preds = %61
  %70 = add nsw i64 %63, %50
  %71 = inttoptr i64 %70 to ptr
  %72 = add nsw i64 %66, %51
  %73 = inttoptr i64 %72 to ptr
  %74 = add i32 %.0, -1
  %.not57 = icmp eq i32 %74, 0
  br i1 %.not57, label %75, label %52, !llvm.loop !44

75:                                               ; preds = %69
  ret void
}